(dp0
Vlucholaf
p1
(dp2
Vhttp://w3rep.sourceforge.net/
p3
F0.0
sVhttps://code.google.com/p/ranet-uilibrary-olap/
p4
F0.0
sVhttp://caniuse.com/#feat=cors
p5
F0.0
sVhttp://www.humblebundle.com/
p6
F0.0
sVhttp://msdn.microsoft.com/en-us/library/windows/hardware/jj128407(v=vs.85).aspx
p7
F0.0
sVhttp://www.webdesignerdepot.com/2011/03/then-and-now-portrait-photography-by-irina-werning/
p8
F0.0
sVhttp://www.slideshare.net/petebehrens/the-culture-of-agility
p9
F0.0
sVhttp://www.makershed.com/
p10
F0.0
sVhttp://www.movable-type.co.uk/scripts/latlong.html
p11
F0.0
sVhttp://3dgep.com/?p=1815
p12
F0.0
sVhttp://www.mpi-inf.mpg.de/departments/d1/ClassroomExamples/
p13
F0.0
sVhttp://d.klwe.info/ubuntu-12-04-setting-up-apache2-and-ssl-with-self-signed-certificate/
p14
F0.0
sVhttps://www.sourceware.org/ml/systemtap/2009-q1/msg00698.html
p15
F0.0
sVhttp://www.doityourself.com/stry/how-to-remove-textured-paint-from-your-walls#b
p16
F0.0
sVhttp://techmonks.net/windowsxp-using-the-command-prompt-to-see-and-kill-processes/
p17
F0.0
sVhttp://www.hooyou.com/i-485/vwp-filing-memo.html
p18
F0.0
sVhttp://code.google.com/p/dbcached/
p19
F0.0
sVhttp://www.eventhelix.com/lte/attach/lte-attach.pdf
p20
F0.0
sVhttp://kaluga.stream-info.ru/ru/service/tvcab/canals/
p21
F0.0
sVhttp://link.springer.com/chapter/10.1007%2F978-3-642-35506-6_22#page-1
p22
F0.0
sVhttp://lucassmith.name/pub/YUI2ToYUI3.html
p23
F0.0
sVhttp://adamlevermore.com/2010/08/19/tutorial-creating-a-retro-sci-fi-poster
p24
F0.0
sVhttp://www.flickr.com/photos/mickythepixel/sets/72157616819585543
p25
F0.0
sVhttp://www.symantec.com/connect/articles/new-features-doscanexe-sep-ru6mp1
p26
F0.0
sVhttp://www.visajourney.com/forums/topic/385351-i-485-with-expired-visa-waiver/
p27
F0.0
sVhttp://blog.c1gstudio.com/archives/1113
p28
F0.0
sVhttp://hints.binaryage.com/recover-lost-recovery-hd-for-filevault/
p29
F0.0
sVhttp://www.forpeatsake.com/
p30
F1.0
sVhttp://ollydbg.de/Paperbak/
p31
F0.0
sVhttp://www.fastspring.com/
p32
F0.0
sVhttp://www.personalitypage.com/INTJ_per.html
p33
F0.0
sVhttp://code.google.com/p/phpcws/
p34
F0.0
sVhttp://quetzalcoatal.blogspot.com/2012/06/building-mozilla-with-clang-lto.html
p35
F0.0
sVhttp://www.cse.unsw.edu.au/~cs3221/labs/assembler-intro.pdf
p36
F0.0
sVhttp://net.tutsplus.com/tutorials/javascript-ajax/how-to-load-in-and-animate-content-with-jquery/
p37
F0.0
sVhttp://www.genericerror.com/blog/2009/01/27/ASPNetMVCCustomErrorPages.aspx
p38
F0.0
sVhttp://mathworld.wolfram.com/FourierSeries.html
p39
F0.0
sVhttp://scientificbsides.wordpress.com/2012/01/23/detecting-novel-associations-in-large-data-sets-let-the-giants-battle-it-out/
p40
F0.0
sVhttp://www.squidoo.com/javaToPython
p41
F0.0
sVhttp://curia.europa.eu/juris/document/document.jsf?text=&docid=114222&pageIndex=0&doclang=EN&mode=lst&dir=&occ=first&part=1&cid=271998
p42
F0.0
sVhttp://blogs.telerik.com/kendoui/posts/13-05-08/requirejs-fundamentals
p43
F0.0
sVhttps://blog.mozilla.org/nfroyd/
p44
F0.0
sVhttp://labs.dinahmoe.com/plink/
p45
F0.0
sVhttp://www.softnet.tuc.gr/~minos/
p46
F0.0
sVhttp://icelandairwaves.is/
p47
F0.0
sVhttp://www.slideshare.net/dullhunk/the-seven-deadly-sins-of-bioinformatics
p48
F0.0
sVhttp://www.foreignersinpoland.com/
p49
F0.0
sVhttp://pixlr.com/editor/
p50
F0.0
sVhttps://github.com/boostorg/atomic/commit/6bb71fdd8f7cc346d90fb14beb38b7297fc1ffd9
p51
F0.0
sVhttp://patorjk.com/software/taag/
p52
F0.0
sVhttp://www.scmagazineus.com/vulnerability-assessment/grouptest/240/
p53
F0.0
sVhttp://blogs.msdn.com/b/pfedev/archive/2010/08/25/whodunit-who-threw-the-message-box-and-why.aspx
p54
F0.0
sVhttp://d-touch.org/libdtouch/
p55
F0.0
sVhttp://www.raywenderlich.com/2696/how-to-debug-memory-leaks-with-xcode-and-instruments-tutorial
p56
F1.0
sVhttp://support.sas.com/resources/papers/proceedings10/288-2010.pdf
p57
F0.0
sVhttp://blcklst.com/
p58
F0.0
sVhttp://www.cinsk.org/emacs/emacs-artist.html
p59
F0.0
sVhttp://www.f5.com/pdf/white-papers/sctp-introduction-wp.pdf
p60
F0.0
sVhttp://jeromyanglim.blogspot.com/2010/11/sweave-tutorial-using-sweave-r-and-make.html
p61
F0.0
sVhttp://www.tuxradar.com/content/xdotool-script-your-mouse
p62
F0.0
sVhttp://www.thespectool.com/v2/lte/controlplane.php
p63
F0.0
sVhttp://www.pha.jhu.edu/~kgb/cosspec/
p64
F0.0
sVhttp://www.symantec.com/business/support/index?page=content&id=TECH96292&locale=en_US
p65
F0.0
sVhttp://cran.r-project.org/web/packages/LDheatmap/index.html
p66
F0.0
sVhttp://middleearmedia.com/web-audio-api-oscillators/
p67
F0.0
sVhttp://mathworld.wolfram.com/FourierSeriesTriangleWave.html
p68
F0.0
sVhttp://rosaromance.splinder.com/post/23786034/behind-the-cover-reginald-heade
p69
F0.0
sVhttps://www.npmjs.org/package/grunt-contrib-nodefy
p70
F0.0
sVhttp://survivejs.com/
p71
F0.0
sVhttp://iphonedevelopertips.com/xcode/iphone-distribution-build-cheatsheet.html
p72
F1.0
sVhttp://moontumbo.blogspot.com/2008/05/kde-cant-move-windows.html
p73
F0.0
sVhttp://www.kpmg.com/Global/en/IssuesAndInsights/ArticlesPublications/taxation-international-executives/austria/pages/income-tax.aspx#10
p74
F0.0
sVhttp://programmers.stackexchange.com/questions/119778/where-we-should-put-validation-for-domain-model
p75
F0.0
sVhttp://www.cybertec.at/blog/
p76
F0.0
sVhttp://www.turnkeylinux.org/blog/geoip-amazon-regions
p77
F0.0
sVhttp://pandaboard.org/
p78
F0.0
sVhttp://www.myfastpc.com/
p79
F0.0
sVhttp://blog.revolutionanalytics.com/2011/10/where-to-look-for-data.html
p80
F0.0
sVhttp://techcrunch.com/2011/01/07/10-business-models-that-rocked-2010/
p81
F1.0
sVhttp://www.globalpropertyguide.com/Latin-America/Argentina/Price-History
p82
F1.0
sVhttp://arshaw.com/fullcalendar/
p83
F0.0
sVhttp://iphonedevdepot.com/tiki-index.php
p84
F1.0
sVhttp://www.alexanderkorzerrobinson.co.uk/book-objects-gallery
p85
F0.0
sVhttp://techbrew.net/articles/200711/how-to-put-intellij-idea-on-ubuntu/
p86
F0.0
sVhttp://forums.fedoraforum.org/showthread.php?t=201885
p87
F0.0
sVhttp://www.mglerner.com/blog/?p=28
p88
F0.0
sVhttps://ccrma.stanford.edu/~juhan/vas.html
p89
F0.0
sVhttp://community.homedepot.com/t5/Paint/Removing-textured-paint/td-p/12221
p90
F0.0
sVhttp://users.tpg.com.au/j_birch/plugins/superfish/#getting-started
p91
F0.0
sVhttp://bbs.weiphone.com/read-htm-tid-1847999.html
p92
F0.0
sVhttp://www.mblondel.org/journal/2009/08/31/dynamic-time-warping-theory/
p93
F0.0
sVhttp://www.idev101.com/code/Distribution/build.html
p94
F1.0
sVhttp://jakevdp.github.io/blog/2013/12/01/kernel-density-estimation/
p95
F0.0
sVhttp://www.ibm.com/developerworks/library/l-git-subversion-1/#resources
p96
F0.0
sVhttp://download.qosmos.com/thenowfactory/ixEngine4.9.3/Qosmos_ixEngine_SDK_Standard_Edition_Reference_Guide_4-9-3_html/index.html
p97
F0.0
sVhttps://software.intel.com/sites/products/documentation/doclib/iss/2013/amplifier/lin/ug_docs/GUID-C541FEEF-4F10-48B7-87DD-10DC26E1FE36.htm
p98
F0.0
sVhttp://www.brainpickings.org/2010/11/05/choice-decisions-books/
p99
F0.0
sVhttp://www.wildbunny.co.uk/blog/2011/03/25/speculative-contacts-an-continuous-collision-engine-approach-part-1/
p100
F0.0
sVhttp://code.google.com/p/google-refine/
p101
F0.0
sVhttp://woodworking.about.com/od/gettingstarted/tp/sevenPowerTools.htm
p102
F0.0
sVhttps://www.facebook.com/profile.php?id=100008363013127&fref=pymk
p103
F0.0
sVhttp://www.cyberciti.biz/faq/howto-ubuntu-linux-install-configure-jdk-jre/
p104
F0.0
sVhttp://www.icl.pku.edu.cn/icl_groups/corpus/spec.htm
p105
F0.0
sVhttp://chris-fletcher.com/2010/10/14/how-to-create-a-lite-version-of-your-iphone-app/
p106
F1.0
sVhttp://www.gawnecainresearch.co.uk/
p107
F0.0
sVhttp://www.epicurious.com/articlesguides/blogs/editor/2014/05/homemade-barbecue-sauces-we-love.html
p108
F0.0
sVhttp://visual-analytics.org/2011/02/17/hell-world/
p109
F0.0
sVhttp://www.denx.de/wiki/U-Boot
p110
F0.0
sVhttp://addyosmani.com/writing-modular-js/
p111
F0.0
sVhttp://techcrunch.com/2010/12/26/top-40-iphone-apps-2010/
p112
F0.0
sVhttp://www.statmethods.net/advstats/matrix.html
p113
F0.0
sVhttp://tdd.caelum.com.br/
p114
F0.0
sVhttp://www.thespectool.com/v2/index.php
p115
F0.0
sVhttp://www.parshift.com/Speakers/Speak016.htm
p116
F0.0
sVhttp://www.uscis.gov/about-us/find-uscis-office/international-offices/austria-vienna-field-office
p117
F0.0
sVhttp://download.qosmos.com/thenowfactory/ixEngine4.9.3/Qosmos_ixEngine_SDK_Protobook/protobook-en.html
p118
F0.0
sVhttp://retrospectivewiki.org/
p119
F0.0
sVhttp://matt.might.net/articles/crapl/
p120
F0.0
sVhttp://www.inside-r.org/howto/finding-data-internet
p121
F0.0
sVhttp://www.interviewedge.com/articles/art209.htm
p122
F0.0
sVhttp://www.freakycpp.com/
p123
F0.0
sVhttp://python.computersci.org/Main/TableOfContents
p124
F0.0
sVhttp://effbot.org/
p125
F0.0
sVhttp://kerneltrap.org/
p126
F0.0
sVhttps://code.djangoproject.com/wiki/InitdScriptForLinux
p127
F0.0
sVhttp://cgm.cs.mcgill.ca/~athens/cs507/Projects/2003/DanielSud/
p128
F0.0
sVhttps://dvcs.w3.org/hg/audio/raw-file/tip/webaudio/specification.html
p129
F0.0
sVhttp://www.eventhelix.com/lte/lte-tutorials.htm
p130
F0.0
sVhttp://lxr.linux.no/
p131
F0.0
sVhttps://www.otexts.org/book/fpp
p132
F0.0
sVhttp://www.codepublishing.com/ca/santaclara/mobile/
p133
F0.0
sVhttp://bbs.weiphone.com/read-htm-tid-1860241.html
p134
F0.0
sVhttp://en.wikibooks.org/wiki/Haskell
p135
F0.0
sVhttp://queens.db.toronto.edu/~koudas/
p136
F0.0
sVhttp://doughellmann.com/2012/11/12/the-performance-impact-of-using-dict-instead-of-in-cpython-2-7-2.html
p137
F0.0
sVhttp://www.sognilucidi.it/mediawiki/index.php?title=Pagina_principale
p138
F0.0
sVhttps://trac.macports.org/ticket/42282
p139
F0.0
sVhttp://www.otierney.net/objective-c.html.ko
p140
F0.0
sVhttp://karnakgames.com/wp/2011/01/how-to-outsource-art-for-your-game-using-freelancing-sites/
p141
F1.0
sVhttp://www.lua.org/manual/5.1/manual.html#2
p142
F0.0
sVhttp://bonomo.info/coyote/ip-calculator.php
p143
F0.0
sVhttp://www.ics.uci.edu/~fielding/pubs/dissertation/rest_arch_style.htm
p144
F0.0
sVhttp://blog.minidx.com/2008/08/24/1305.html
p145
F0.0
sVhttp://blog.smartbear.com/loadui/understanding-soap-and-rest-basics/
p146
F0.0
sVhttp://kernelnewbies.org/
p147
F0.0
sVhttp://www.ouah.org/ogay/hmac/
p148
F0.0
sVhttp://www.problogger.net/archives/2010/12/16/the-5-critical-errors-most-people-make-when-they-start-using-social-media-for-business-2/?utm_source=feedburner&utm_medium=feed&utm_campaign=Feed%3A+ProbloggerHelpingBloggersEarnMoney+%28ProBlogger%3A+Helping+Bloggers+Earn+Money%29
p149
F0.0
sVhttp://martinfowler.com/bliki/ContextualValidation.html
p150
F0.0
sVhttp://www.timstinchcombe.co.uk/site_map.html
p151
F0.0
sVhttp://wikiaudio.org/
p152
F0.0
sVhttps://www.bitstamp.net/
p153
F0.0
sVhttp://www.3glteinfo.com/lte/lte-security/lte-security-architecture
p154
F0.0
sVhttp://gitguru.com/2009/02/22/integrating-git-with-a-visual-merge-tool/
p155
F1.0
sVhttps://blog.codecentric.de/en/2014/02/cross-platform-javascript/
p156
F0.0
sVhttp://peternixey.com/post/83510597580/how-to-be-a-great-software-developer
p157
F0.0
sVhttp://robots.thoughtbot.com/keeping-a-github-fork-updated
p158
F0.0
sVhttp://www.symantec.com/business/support/index?page=content&id=TECH102419&locale=en_US
p159
F0.0
sVhttps://github.com/boostorg/atomic/commit/e4bde20f2eec0a51be14533871d2123bd2ab9cf3
p160
F0.0
sVhttp://gumstix.com/
p161
F0.0
sVhttp://en.wikipedia.org/wiki/Simple_random_sample
p162
F0.0
sVhttp://dailyburn.com/
p163
F0.0
sVhttp://enigmistica.xa.am/scarica-riviste-con-soluzioni/
p164
F0.0
sVhttp://www.youtube.com/watch?v=BAkoeagvweA
p165
F0.0
sVhttp://fusharblog.com/3-ways-to-define-comparison-functions-in-cpp/
p166
F0.0
sVhttp://code.openark.org/blog/mysql/useful-temporal-functions-queries
p167
F0.0
sVhttp://www.drdobbs.com/embedded-systems/breadboarding-arm/240168141
p168
F0.0
sVhttp://www.infoq.com/research/puzzles-functional-programming
p169
F0.0
sVhttp://thomer.com/howtos/crop_whitespace_in_ps.html
p170
F0.0
sVhttp://bbs.weiphone.com/read-htm-tid-1854096.html
p171
F0.0
sVhttp://ercbench.ece.wisc.edu/index.php?option=com_content&view=article&id=64:snow-3g&catid=3:cryptography&Itemid=6
p172
F0.0
sVhttp://www.roguebasin.com/index.php?title=The_Incredible_Power_of_Dijkstra_Maps
p173
F0.0
sVhttp://www.intego.com/mac-security-blog/how-to-use-apples-built-in-features-to-encrypt-files-and-folders/
p174
F0.0
sVhttp://www.lyris.com/
p175
F0.0
sVhttp://www.immigrationdirect.com/uscis/uscis-austria-vienna-field-office.jsp
p176
F0.0
sVhttp://www.flickr.com/photos/pixeljones/4550098754/in/set-72157622393995227
p177
F0.0
sVhttps://beta.stepic.org/Bioinformatics-Algorithms-2/
p178
F0.0
sVhttps://www.paypalobjects.com/en_US/vhelp/paypalmanager_help/credit_card_numbers.htm
p179
F0.0
sVhttp://users.ices.utexas.edu/~acook/research/
p180
F0.0
sVhttps://github.com/huichen/sego/blob/master/segmenter.go
p181
F0.0
sVhttp://www.coresecurity.com/content/vuln-assessment
p182
F0.0
ssVexamachine
p183
(dp184
g3
F0.0
sg4
F0.0
sg5
F0.0
sg6
F0.0
sg7
F0.0
sg8
F0.0
sg9
F0.0
sg10
F0.0
sg11
F0.0
sg12
F0.0
sg13
F0.0
sg14
F0.0
sg15
F0.0
sg16
F0.0
sg17
F0.0
sg18
F0.0
sg19
F0.0
sg20
F0.0
sg21
F0.0
sg22
F1.0
sg23
F0.0
sg24
F0.0
sg25
F0.0
sg26
F0.0
sg27
F0.0
sg155
F0.0
sg29
F1.0
sg30
F0.0
sg31
F0.0
sg32
F0.0
sg33
F0.0
sg34
F0.0
sg35
F0.0
sg36
F0.0
sg37
F0.0
sg38
F0.0
sg39
F0.0
sg40
F0.0
sg55
F0.0
sg42
F0.0
sg43
F0.0
sg44
F0.0
sg45
F0.0
sg46
F0.0
sg47
F1.0
sg48
F0.0
sg49
F0.0
sg50
F0.0
sg51
F0.0
sg52
F0.0
sg53
F0.0
sg54
F0.0
sg41
F0.0
sg56
F0.0
sg57
F1.0
sg58
F0.0
sg59
F0.0
sg60
F0.0
sg61
F0.0
sg62
F0.0
sg63
F0.0
sg64
F1.0
sg65
F0.0
sg66
F0.0
sg67
F0.0
sg68
F0.0
sg69
F0.0
sg70
F0.0
sg71
F0.0
sg72
F0.0
sg73
F0.0
sg74
F0.0
sg75
F0.0
sg76
F0.0
sg77
F0.0
sg78
F0.0
sg79
F0.0
sg80
F0.0
sg81
F0.0
sg82
F0.0
sg163
F0.0
sg83
F0.0
sg84
F0.0
sg85
F0.0
sg86
F0.0
sg87
F0.0
sg88
F0.0
sg89
F0.0
sg90
F0.0
sg91
F0.0
sg92
F0.0
sg93
F0.0
sg94
F0.0
sg95
F0.0
sg96
F0.0
sg97
F0.0
sg98
F0.0
sg99
F0.0
sg100
F0.0
sg101
F0.0
sg102
F0.0
sg103
F1.0
sg104
F0.0
sg105
F0.0
sg106
F0.0
sg107
F0.0
sg108
F1.0
sg109
F0.0
sg110
F0.0
sg111
F0.0
sg112
F0.0
sg113
F0.0
sg114
F0.0
sg115
F0.0
sg117
F0.0
sg118
F0.0
sg119
F0.0
sg120
F0.0
sg121
F0.0
sg122
F0.0
sg123
F0.0
sg124
F0.0
sg125
F0.0
sg126
F0.0
sg127
F0.0
sg128
F0.0
sg129
F0.0
sg130
F0.0
sg131
F0.0
sg132
F0.0
sg133
F0.0
sg134
F0.0
sg135
F1.0
sg136
F0.0
sg137
F0.0
sg138
F0.0
sg139
F0.0
sg140
F0.0
sg141
F0.0
sg142
F0.0
sg143
F0.0
sg144
F0.0
sg145
F0.0
sg146
F0.0
sg147
F0.0
sg148
F0.0
sg149
F0.0
sg150
F0.0
sg151
F0.0
sg152
F0.0
sg153
F0.0
sg154
F0.0
sg28
F0.0
sg156
F0.0
sg157
F0.0
sg158
F0.0
sg159
F0.0
sg160
F0.0
sg161
F0.0
sg162
F0.0
sg168
F1.0
sg164
F0.0
sg165
F0.0
sg166
F0.0
sg167
F0.0
sg116
F0.0
sg169
F0.0
sg170
F0.0
sg171
F0.0
sg172
F0.0
sg173
F0.0
sg174
F1.0
sg175
F0.0
sg176
F0.0
sg177
F0.0
sg178
F0.0
sg179
F0.0
sg180
F0.0
sg181
F0.0
sg182
F0.0
ssVmichele.caramello
p185
(dp186
g12
F0.0
sg4
F0.0
sg5
F0.0
sg6
F0.0
sg7
F1.0
sg8
F0.0
sg9
F0.0
sg10
F0.0
sg11
F0.0
sg3
F0.0
sg13
F0.0
sg14
F0.0
sg15
F0.0
sg16
F1.0
sg17
F0.0
sg18
F0.0
sg19
F0.0
sg20
F0.0
sg21
F0.0
sg22
F0.0
sg23
F0.0
sg24
F0.0
sg25
F0.0
sg26
F0.0
sg27
F0.0
sg155
F0.0
sg29
F0.0
sg30
F0.0
sg31
F0.0
sg32
F0.0
sg33
F0.0
sg34
F0.0
sg35
F0.0
sg36
F0.0
sg37
F0.0
sg38
F0.0
sg39
F0.0
sg40
F0.0
sg55
F0.0
sg42
F0.0
sg43
F0.0
sg44
F0.0
sg45
F0.0
sg46
F0.0
sg47
F0.0
sg48
F0.0
sg49
F0.0
sg50
F0.0
sg51
F0.0
sg52
F0.0
sg53
F0.0
sg54
F0.0
sg41
F0.0
sg56
F0.0
sg57
F0.0
sg58
F0.0
sg59
F0.0
sg60
F0.0
sg61
F0.0
sg62
F0.0
sg63
F0.0
sg64
F0.0
sg65
F0.0
sg66
F0.0
sg67
F0.0
sg68
F0.0
sg69
F0.0
sg70
F0.0
sg71
F0.0
sg72
F0.0
sg73
F0.0
sg74
F0.0
sg75
F0.0
sg76
F0.0
sg77
F0.0
sg78
F0.0
sg79
F0.0
sg80
F0.0
sg81
F0.0
sg82
F0.0
sg83
F0.0
sg84
F0.0
sg85
F0.0
sg86
F0.0
sg87
F0.0
sg88
F0.0
sg89
F0.0
sg90
F1.0
sg91
F0.0
sg92
F0.0
sg93
F0.0
sg94
F0.0
sg95
F0.0
sg96
F1.0
sg97
F0.0
sg98
F0.0
sg99
F0.0
sg100
F0.0
sg101
F0.0
sg102
F1.0
sg103
F0.0
sg104
F0.0
sg105
F0.0
sg106
F0.0
sg107
F0.0
sg108
F0.0
sg109
F0.0
sg110
F0.0
sg111
F0.0
sg112
F0.0
sg113
F0.0
sg114
F0.0
sg115
F0.0
sg116
F0.0
sg117
F0.0
sg118
F0.0
sg119
F0.0
sg120
F0.0
sg121
F0.0
sg122
F0.0
sg123
F0.0
sg124
F0.0
sg125
F0.0
sg126
F0.0
sg127
F0.0
sg128
F0.0
sg129
F0.0
sg130
F0.0
sg131
F0.0
sg132
F0.0
sg133
F1.0
sg134
F0.0
sg135
F0.0
sg136
F0.0
sg137
F0.0
sg138
F0.0
sg139
F0.0
sg140
F0.0
sg141
F0.0
sg142
F0.0
sg143
F0.0
sg144
F1.0
sg145
F0.0
sg146
F1.0
sg147
F0.0
sg148
F0.0
sg149
F0.0
sg150
F0.0
sg151
F0.0
sg152
F0.0
sg153
F0.0
sg154
F0.0
sg28
F0.0
sg156
F0.0
sg157
F0.0
sg158
F0.0
sg159
F0.0
sg160
F0.0
sg161
F0.0
sg162
F0.0
sg163
F0.0
sg164
F1.0
sg165
F1.0
sg166
F0.0
sg167
F0.0
sg168
F0.0
sg169
F0.0
sg170
F0.0
sg171
F0.0
sg172
F0.0
sg173
F0.0
sg174
F0.0
sg175
F0.0
sg176
F0.0
sg177
F0.0
sg178
F0.0
sg179
F0.0
sg180
F0.0
sg181
F0.0
sg182
F0.0
ssVitaraju
p187
(dp188
g12
F0.0
sg4
F0.0
sg5
F0.0
sg6
F0.0
sg7
F0.0
sg8
F0.0
sg9
F0.0
sg10
F0.0
sg11
F0.0
sg3
F0.0
sg13
F0.0
sg14
F0.0
sg15
F0.0
sg16
F0.0
sg17
F0.0
sg18
F0.0
sg19
F0.0
sg20
F0.0
sg21
F0.0
sg22
F0.0
sg23
F0.0
sg24
F0.0
sg25
F0.0
sg26
F0.0
sg27
F0.0
sg155
F0.0
sg29
F0.0
sg30
F0.0
sg31
F1.0
sg32
F0.0
sg33
F0.0
sg34
F0.0
sg35
F0.0
sg36
F0.0
sg37
F0.0
sg38
F0.0
sg39
F0.0
sg40
F1.0
sg55
F0.0
sg42
F0.0
sg43
F0.0
sg44
F0.0
sg45
F0.0
sg46
F0.0
sg47
F0.0
sg48
F1.0
sg49
F0.0
sg50
F0.0
sg51
F0.0
sg52
F1.0
sg53
F0.0
sg54
F0.0
sg41
F0.0
sg56
F0.0
sg57
F0.0
sg58
F0.0
sg59
F0.0
sg60
F0.0
sg61
F1.0
sg62
F1.0
sg63
F0.0
sg64
F0.0
sg65
F0.0
sg66
F1.0
sg67
F0.0
sg68
F0.0
sg69
F0.0
sg70
F0.0
sg71
F0.0
sg72
F0.0
sg73
F0.0
sg77
F0.0
sg75
F0.0
sg76
F0.0
sg74
F0.0
sg78
F0.0
sg79
F0.0
sg80
F1.0
sg81
F0.0
sg82
F0.0
sg83
F0.0
sg84
F0.0
sg85
F0.0
sg86
F0.0
sg87
F0.0
sg88
F0.0
sg89
F0.0
sg90
F0.0
sg91
F0.0
sg92
F0.0
sg93
F0.0
sg94
F0.0
sg95
F0.0
sg96
F0.0
sg97
F0.0
sg98
F0.0
sg99
F0.0
sg100
F0.0
sg101
F0.0
sg102
F0.0
sg103
F0.0
sg104
F0.0
sg105
F0.0
sg106
F0.0
sg107
F0.0
sg108
F0.0
sg109
F0.0
sg110
F0.0
sg111
F0.0
sg112
F0.0
sg113
F1.0
sg114
F0.0
sg115
F0.0
sg116
F0.0
sg117
F0.0
sg118
F0.0
sg119
F0.0
sg120
F0.0
sg170
F0.0
sg122
F0.0
sg123
F0.0
sg124
F0.0
sg125
F0.0
sg126
F0.0
sg127
F0.0
sg128
F0.0
sg129
F0.0
sg130
F0.0
sg131
F0.0
sg132
F0.0
sg133
F0.0
sg134
F0.0
sg135
F0.0
sg136
F0.0
sg137
F0.0
sg138
F0.0
sg139
F0.0
sg140
F0.0
sg141
F0.0
sg142
F0.0
sg143
F0.0
sg144
F0.0
sg145
F0.0
sg146
F0.0
sg147
F0.0
sg148
F0.0
sg149
F0.0
sg150
F0.0
sg151
F0.0
sg152
F0.0
sg153
F0.0
sg154
F0.0
sg28
F0.0
sg156
F0.0
sg157
F0.0
sg158
F0.0
sg159
F0.0
sg160
F0.0
sg161
F0.0
sg162
F0.0
sg163
F0.0
sg164
F0.0
sg165
F0.0
sg166
F0.0
sg167
F0.0
sg168
F0.0
sg169
F0.0
sg121
F1.0
sg171
F0.0
sg172
F0.0
sg173
F0.0
sg174
F0.0
sg175
F0.0
sg176
F0.0
sg177
F0.0
sg178
F0.0
sg179
F0.0
sg180
F0.0
sg181
F0.0
sg182
F0.0
ssVsorin_alupoaie
p189
(dp190
g3
F0.0
sg4
F0.0
sg5
F0.0
sg6
F0.0
sg7
F0.0
sg8
F0.0
sg9
F0.0
sg10
F0.0
sg11
F0.0
sg12
F0.0
sg13
F0.0
sg14
F0.0
sg15
F0.0
sg16
F0.0
sg17
F0.0
sg18
F0.0
sg19
F0.0
sg20
F1.0
sg21
F0.0
sg22
F0.0
sg23
F0.0
sg24
F0.0
sg25
F0.0
sg26
F0.0
sg27
F0.0
sg155
F0.0
sg29
F0.0
sg30
F0.0
sg31
F0.0
sg32
F0.0
sg33
F0.0
sg34
F0.0
sg35
F0.0
sg36
F0.0
sg37
F0.0
sg38
F0.0
sg39
F0.0
sg40
F0.0
sg55
F0.0
sg42
F0.0
sg43
F0.0
sg44
F0.0
sg45
F0.0
sg46
F0.0
sg47
F0.0
sg48
F0.0
sg49
F0.0
sg50
F0.0
sg51
F0.0
sg52
F0.0
sg53
F0.0
sg54
F0.0
sg41
F0.0
sg56
F0.0
sg57
F0.0
sg58
F0.0
sg59
F0.0
sg60
F1.0
sg61
F0.0
sg62
F0.0
sg63
F1.0
sg64
F0.0
sg65
F0.0
sg66
F0.0
sg67
F0.0
sg68
F0.0
sg69
F0.0
sg70
F0.0
sg71
F0.0
sg72
F0.0
sg73
F0.0
sg74
F0.0
sg75
F0.0
sg76
F0.0
sg77
F0.0
sg78
F0.0
sg79
F0.0
sg80
F0.0
sg81
F0.0
sg82
F0.0
sg83
F0.0
sg84
F0.0
sg85
F0.0
sg86
F0.0
sg87
F0.0
sg88
F0.0
sg89
F0.0
sg90
F0.0
sg91
F0.0
sg92
F0.0
sg93
F0.0
sg94
F0.0
sg95
F0.0
sg96
F0.0
sg97
F1.0
sg98
F0.0
sg99
F0.0
sg100
F0.0
sg101
F0.0
sg102
F0.0
sg103
F0.0
sg104
F0.0
sg105
F0.0
sg106
F0.0
sg107
F0.0
sg108
F0.0
sg109
F0.0
sg110
F0.0
sg111
F0.0
sg112
F0.0
sg113
F0.0
sg114
F0.0
sg115
F1.0
sg116
F0.0
sg117
F0.0
sg118
F1.0
sg119
F0.0
sg120
F0.0
sg121
F0.0
sg122
F0.0
sg123
F0.0
sg124
F0.0
sg125
F0.0
sg126
F0.0
sg127
F0.0
sg128
F0.0
sg129
F0.0
sg130
F1.0
sg131
F0.0
sg132
F0.0
sg133
F0.0
sg134
F0.0
sg135
F0.0
sg136
F0.0
sg137
F0.0
sg138
F0.0
sg139
F0.0
sg140
F0.0
sg141
F0.0
sg142
F0.0
sg143
F0.0
sg154
F1.0
sg145
F0.0
sg146
F0.0
sg147
F0.0
sg148
F1.0
sg149
F0.0
sg150
F0.0
sg151
F0.0
sg152
F0.0
sg153
F0.0
sg144
F0.0
sg28
F0.0
sg156
F0.0
sg157
F0.0
sg158
F0.0
sg159
F0.0
sg160
F0.0
sg161
F0.0
sg162
F0.0
sg163
F0.0
sg164
F0.0
sg165
F0.0
sg166
F0.0
sg167
F0.0
sg168
F0.0
sg169
F0.0
sg170
F0.0
sg171
F0.0
sg180
F0.0
sg173
F0.0
sg174
F0.0
sg175
F0.0
sg176
F0.0
sg177
F0.0
sg178
F0.0
sg179
F0.0
sg172
F1.0
sg181
F0.0
sg182
F0.0
ssVx33
p191
(dp192
g12
F0.0
sg4
F0.0
sg5
F0.0
sg6
F0.0
sg27
F0.0
sg8
F0.0
sg9
F0.0
sg10
F0.0
sg11
F0.0
sg3
F0.0
sg13
F0.0
sg14
F0.0
sg15
F0.0
sg16
F0.0
sg17
F0.0
sg18
F0.0
sg19
F0.0
sg20
F0.0
sg21
F0.0
sg22
F0.0
sg23
F0.0
sg24
F0.0
sg25
F0.0
sg26
F0.0
sg7
F0.0
sg155
F0.0
sg29
F0.0
sg30
F0.0
sg31
F0.0
sg32
F1.0
sg33
F0.0
sg34
F0.0
sg35
F0.0
sg36
F0.0
sg37
F0.0
sg38
F0.0
sg39
F0.0
sg40
F0.0
sg55
F0.0
sg42
F0.0
sg43
F0.0
sg44
F0.0
sg45
F0.0
sg46
F1.0
sg47
F0.0
sg48
F0.0
sg49
F0.0
sg93
F1.0
sg51
F0.0
sg52
F0.0
sg53
F0.0
sg54
F0.0
sg41
F0.0
sg56
F0.0
sg57
F0.0
sg58
F0.0
sg59
F0.0
sg60
F0.0
sg61
F0.0
sg62
F0.0
sg63
F0.0
sg64
F0.0
sg65
F0.0
sg66
F0.0
sg136
F1.0
sg68
F0.0
sg69
F0.0
sg70
F0.0
sg71
F0.0
sg72
F0.0
sg73
F0.0
sg74
F0.0
sg75
F0.0
sg76
F0.0
sg77
F0.0
sg78
F0.0
sg79
F0.0
sg80
F0.0
sg81
F0.0
sg82
F0.0
sg83
F0.0
sg84
F0.0
sg85
F0.0
sg86
F0.0
sg87
F0.0
sg88
F0.0
sg89
F0.0
sg90
F0.0
sg91
F0.0
sg92
F0.0
sg50
F0.0
sg94
F0.0
sg95
F0.0
sg96
F0.0
sg97
F0.0
sg98
F0.0
sg99
F0.0
sg100
F0.0
sg101
F1.0
sg102
F0.0
sg103
F0.0
sg104
F0.0
sg105
F0.0
sg106
F0.0
sg107
F0.0
sg108
F0.0
sg109
F1.0
sg110
F0.0
sg111
F0.0
sg112
F0.0
sg113
F0.0
sg114
F0.0
sg115
F0.0
sg116
F0.0
sg117
F0.0
sg118
F0.0
sg119
F0.0
sg120
F0.0
sg121
F0.0
sg122
F0.0
sg123
F0.0
sg124
F0.0
sg125
F0.0
sg126
F0.0
sg127
F0.0
sg128
F0.0
sg129
F0.0
sg130
F0.0
sg131
F0.0
sg132
F0.0
sg133
F0.0
sg134
F0.0
sg135
F0.0
sg67
F0.0
sg137
F0.0
sg138
F1.0
sg139
F0.0
sg140
F0.0
sg141
F0.0
sg142
F0.0
sg143
F0.0
sg144
F0.0
sg145
F0.0
sg146
F0.0
sg147
F0.0
sg148
F0.0
sg149
F0.0
sg150
F0.0
sg151
F0.0
sg152
F0.0
sg153
F0.0
sg154
F0.0
sg28
F0.0
sg156
F0.0
sg157
F0.0
sg158
F0.0
sg159
F0.0
sg160
F0.0
sg161
F0.0
sg162
F0.0
sg163
F0.0
sg164
F0.0
sg165
F0.0
sg166
F0.0
sg167
F1.0
sg168
F0.0
sg169
F0.0
sg170
F1.0
sg171
F0.0
sg172
F0.0
sg173
F0.0
sg174
F0.0
sg175
F1.0
sg176
F0.0
sg177
F0.0
sg178
F0.0
sg179
F0.0
sg180
F0.0
sg181
F0.0
sg182
F0.0
ssVandrewjbaker
p193
(dp194
g3
F0.0
sg4
F0.0
sg5
F0.0
sg6
F0.0
sg7
F0.0
sg8
F0.0
sg9
F0.0
sg10
F0.0
sg11
F0.0
sg12
F0.0
sg13
F0.0
sg14
F0.0
sg15
F0.0
sg16
F0.0
sg17
F0.0
sg18
F0.0
sg19
F0.0
sg173
F1.0
sg21
F0.0
sg22
F0.0
sg23
F0.0
sg24
F0.0
sg25
F0.0
sg26
F0.0
sg27
F0.0
sg155
F0.0
sg29
F0.0
sg30
F0.0
sg31
F0.0
sg32
F0.0
sg33
F1.0
sg34
F0.0
sg35
F0.0
sg36
F0.0
sg37
F0.0
sg38
F0.0
sg39
F0.0
sg40
F0.0
sg55
F0.0
sg42
F0.0
sg43
F1.0
sg44
F0.0
sg45
F0.0
sg46
F0.0
sg47
F0.0
sg48
F0.0
sg49
F0.0
sg50
F0.0
sg51
F0.0
sg52
F0.0
sg53
F0.0
sg54
F0.0
sg41
F0.0
sg56
F0.0
sg57
F0.0
sg58
F0.0
sg59
F0.0
sg60
F0.0
sg61
F0.0
sg62
F0.0
sg63
F0.0
sg64
F0.0
sg65
F0.0
sg66
F0.0
sg67
F1.0
sg68
F0.0
sg69
F0.0
sg70
F1.0
sg71
F1.0
sg72
F0.0
sg73
F0.0
sg74
F0.0
sg75
F0.0
sg76
F0.0
sg77
F0.0
sg78
F0.0
sg79
F0.0
sg80
F0.0
sg81
F0.0
sg82
F0.0
sg83
F0.0
sg84
F0.0
sg85
F0.0
sg86
F0.0
sg87
F0.0
sg88
F0.0
sg89
F0.0
sg90
F0.0
sg91
F0.0
sg92
F0.0
sg93
F0.0
sg94
F0.0
sg95
F0.0
sg96
F0.0
sg97
F0.0
sg98
F0.0
sg99
F0.0
sg100
F0.0
sg101
F0.0
sg102
F0.0
sg103
F0.0
sg104
F0.0
sg105
F0.0
sg106
F0.0
sg107
F0.0
sg108
F0.0
sg109
F0.0
sg20
F0.0
sg111
F1.0
sg112
F0.0
sg113
F0.0
sg114
F0.0
sg115
F0.0
sg116
F0.0
sg117
F0.0
sg118
F0.0
sg119
F1.0
sg120
F0.0
sg121
F0.0
sg122
F0.0
sg123
F0.0
sg124
F0.0
sg125
F0.0
sg126
F0.0
sg127
F0.0
sg128
F0.0
sg129
F0.0
sg130
F0.0
sg131
F0.0
sg132
F0.0
sg133
F0.0
sg110
F0.0
sg134
F0.0
sg135
F0.0
sg136
F0.0
sg137
F0.0
sg138
F0.0
sg139
F0.0
sg140
F0.0
sg141
F0.0
sg142
F0.0
sg143
F0.0
sg144
F0.0
sg145
F0.0
sg146
F0.0
sg147
F0.0
sg148
F0.0
sg149
F0.0
sg150
F0.0
sg151
F0.0
sg152
F1.0
sg153
F0.0
sg154
F0.0
sg28
F0.0
sg156
F1.0
sg157
F0.0
sg158
F0.0
sg159
F0.0
sg160
F0.0
sg161
F0.0
sg162
F0.0
sg163
F0.0
sg164
F0.0
sg165
F0.0
sg166
F0.0
sg167
F0.0
sg168
F0.0
sg169
F0.0
sg170
F0.0
sg171
F0.0
sg172
F0.0
sg174
F0.0
sg175
F0.0
sg176
F0.0
sg177
F0.0
sg178
F0.0
sg179
F0.0
sg180
F0.0
sg181
F0.0
sg182
F0.0
ssVamita.ekbote
p195
(dp196
g3
F0.0
sg4
F0.0
sg5
F0.0
sg6
F0.0
sg7
F0.0
sg8
F0.0
sg9
F0.0
sg10
F0.0
sg11
F0.0
sg12
F0.0
sg13
F0.0
sg14
F0.0
sg15
F0.0
sg16
F0.0
sg17
F0.0
sg18
F0.0
sg19
F0.0
sg20
F0.0
sg21
F0.0
sg22
F0.0
sg23
F0.0
sg24
F0.0
sg25
F0.0
sg26
F0.0
sg27
F0.0
sg155
F0.0
sg29
F0.0
sg30
F0.0
sg31
F0.0
sg32
F0.0
sg33
F0.0
sg34
F0.0
sg35
F0.0
sg36
F1.0
sg37
F0.0
sg38
F0.0
sg39
F0.0
sg40
F0.0
sg55
F0.0
sg42
F0.0
sg43
F0.0
sg44
F0.0
sg45
F0.0
sg46
F0.0
sg47
F0.0
sg48
F0.0
sg49
F0.0
sg50
F0.0
sg51
F0.0
sg52
F0.0
sg53
F0.0
sg54
F0.0
sg41
F0.0
sg56
F0.0
sg57
F0.0
sg58
F0.0
sg59
F0.0
sg60
F0.0
sg61
F0.0
sg62
F0.0
sg63
F0.0
sg64
F0.0
sg65
F0.0
sg66
F0.0
sg67
F0.0
sg68
F0.0
sg69
F0.0
sg70
F0.0
sg71
F0.0
sg72
F0.0
sg73
F1.0
sg74
F0.0
sg75
F0.0
sg76
F0.0
sg77
F0.0
sg78
F1.0
sg79
F0.0
sg80
F0.0
sg81
F0.0
sg82
F0.0
sg83
F0.0
sg84
F0.0
sg85
F0.0
sg86
F0.0
sg87
F1.0
sg88
F0.0
sg89
F0.0
sg90
F0.0
sg91
F0.0
sg92
F0.0
sg93
F0.0
sg94
F0.0
sg95
F0.0
sg96
F0.0
sg97
F0.0
sg98
F0.0
sg99
F1.0
sg100
F0.0
sg101
F0.0
sg102
F0.0
sg103
F0.0
sg104
F0.0
sg105
F0.0
sg106
F0.0
sg107
F0.0
sg108
F0.0
sg109
F0.0
sg110
F1.0
sg111
F0.0
sg112
F0.0
sg113
F0.0
sg114
F0.0
sg115
F0.0
sg116
F0.0
sg117
F0.0
sg118
F0.0
sg119
F0.0
sg120
F0.0
sg121
F0.0
sg122
F0.0
sg123
F0.0
sg124
F0.0
sg125
F0.0
sg126
F1.0
sg127
F0.0
sg128
F0.0
sg129
F0.0
sg130
F0.0
sg131
F1.0
sg132
F0.0
sg133
F0.0
sg134
F0.0
sg135
F0.0
sg136
F0.0
sg137
F0.0
sg138
F0.0
sg139
F0.0
sg140
F0.0
sg141
F0.0
sg142
F0.0
sg143
F0.0
sg144
F0.0
sg145
F0.0
sg146
F0.0
sg147
F1.0
sg148
F0.0
sg149
F0.0
sg150
F0.0
sg151
F0.0
sg152
F0.0
sg153
F0.0
sg154
F0.0
sg28
F0.0
sg156
F0.0
sg157
F0.0
sg158
F0.0
sg159
F0.0
sg160
F0.0
sg161
F1.0
sg162
F0.0
sg163
F0.0
sg164
F0.0
sg165
F0.0
sg166
F0.0
sg167
F0.0
sg168
F0.0
sg169
F0.0
sg170
F0.0
sg171
F0.0
sg172
F0.0
sg173
F0.0
sg174
F0.0
sg175
F0.0
sg176
F0.0
sg177
F0.0
sg178
F0.0
sg179
F0.0
sg180
F0.0
sg181
F0.0
sg182
F0.0
ssVsrjones
p197
(dp198
g3
F0.0
sg4
F0.0
sg5
F0.0
sg6
F1.0
sg7
F0.0
sg8
F0.0
sg9
F0.0
sg10
F0.0
sg11
F0.0
sg12
F0.0
sg13
F0.0
sg14
F0.0
sg15
F0.0
sg16
F0.0
sg17
F0.0
sg18
F0.0
sg19
F0.0
sg20
F0.0
sg21
F0.0
sg22
F0.0
sg23
F0.0
sg24
F1.0
sg25
F1.0
sg26
F0.0
sg27
F0.0
sg155
F0.0
sg29
F0.0
sg30
F0.0
sg31
F0.0
sg32
F0.0
sg33
F0.0
sg34
F0.0
sg35
F0.0
sg36
F0.0
sg37
F0.0
sg38
F0.0
sg39
F0.0
sg40
F0.0
sg55
F0.0
sg42
F0.0
sg43
F0.0
sg44
F0.0
sg45
F0.0
sg46
F0.0
sg47
F0.0
sg48
F0.0
sg49
F0.0
sg50
F0.0
sg51
F0.0
sg52
F0.0
sg53
F0.0
sg54
F0.0
sg41
F0.0
sg56
F0.0
sg57
F0.0
sg58
F1.0
sg59
F0.0
sg60
F0.0
sg61
F0.0
sg62
F0.0
sg63
F0.0
sg64
F0.0
sg65
F0.0
sg66
F0.0
sg67
F0.0
sg68
F0.0
sg69
F1.0
sg70
F0.0
sg71
F0.0
sg72
F0.0
sg73
F0.0
sg74
F0.0
sg75
F0.0
sg76
F0.0
sg77
F0.0
sg78
F0.0
sg79
F0.0
sg80
F0.0
sg81
F0.0
sg82
F0.0
sg83
F0.0
sg84
F0.0
sg85
F1.0
sg86
F0.0
sg87
F0.0
sg88
F0.0
sg89
F0.0
sg90
F0.0
sg91
F0.0
sg92
F0.0
sg93
F0.0
sg94
F0.0
sg95
F0.0
sg96
F0.0
sg97
F0.0
sg98
F0.0
sg99
F0.0
sg100
F0.0
sg101
F0.0
sg102
F0.0
sg103
F0.0
sg104
F0.0
sg105
F0.0
sg106
F0.0
sg107
F0.0
sg108
F0.0
sg109
F0.0
sg110
F0.0
sg111
F0.0
sg112
F1.0
sg113
F0.0
sg114
F0.0
sg115
F0.0
sg116
F0.0
sg117
F0.0
sg118
F0.0
sg177
F1.0
sg120
F0.0
sg121
F0.0
sg122
F0.0
sg123
F0.0
sg124
F0.0
sg125
F0.0
sg126
F0.0
sg127
F0.0
sg128
F0.0
sg129
F0.0
sg130
F0.0
sg131
F0.0
sg132
F0.0
sg133
F0.0
sg134
F0.0
sg135
F0.0
sg136
F0.0
sg137
F0.0
sg138
F0.0
sg139
F0.0
sg140
F0.0
sg141
F0.0
sg142
F0.0
sg143
F0.0
sg144
F0.0
sg145
F0.0
sg146
F0.0
sg147
F0.0
sg148
F0.0
sg149
F1.0
sg150
F0.0
sg151
F0.0
sg152
F0.0
sg153
F0.0
sg154
F0.0
sg28
F0.0
sg156
F0.0
sg157
F0.0
sg158
F0.0
sg159
F0.0
sg160
F0.0
sg161
F0.0
sg162
F0.0
sg163
F1.0
sg164
F0.0
sg165
F0.0
sg166
F0.0
sg167
F0.0
sg168
F0.0
sg169
F0.0
sg170
F0.0
sg171
F0.0
sg172
F0.0
sg173
F0.0
sg174
F0.0
sg175
F0.0
sg176
F0.0
sg119
F0.0
sg178
F0.0
sg179
F0.0
sg180
F0.0
sg181
F0.0
sg182
F0.0
ssVconradlee
p199
(dp200
g3
F0.0
sg4
F0.0
sg5
F0.0
sg6
F0.0
sg27
F1.0
sg8
F0.0
sg9
F0.0
sg10
F0.0
sg11
F0.0
sg12
F0.0
sg13
F0.0
sg14
F0.0
sg15
F0.0
sg16
F0.0
sg17
F0.0
sg18
F1.0
sg19
F0.0
sg20
F0.0
sg21
F0.0
sg22
F0.0
sg23
F0.0
sg24
F0.0
sg25
F0.0
sg26
F0.0
sg7
F0.0
sg155
F0.0
sg29
F0.0
sg30
F0.0
sg31
F0.0
sg32
F0.0
sg33
F0.0
sg34
F0.0
sg35
F0.0
sg36
F0.0
sg37
F0.0
sg38
F0.0
sg39
F0.0
sg40
F0.0
sg55
F0.0
sg42
F1.0
sg43
F0.0
sg44
F0.0
sg45
F0.0
sg46
F0.0
sg47
F0.0
sg48
F0.0
sg49
F0.0
sg50
F0.0
sg51
F0.0
sg52
F0.0
sg53
F0.0
sg54
F0.0
sg41
F0.0
sg56
F0.0
sg57
F0.0
sg58
F0.0
sg59
F0.0
sg60
F0.0
sg61
F0.0
sg62
F0.0
sg63
F0.0
sg64
F0.0
sg65
F0.0
sg66
F0.0
sg67
F0.0
sg68
F0.0
sg69
F0.0
sg70
F0.0
sg71
F0.0
sg72
F0.0
sg73
F0.0
sg77
F0.0
sg75
F0.0
sg76
F0.0
sg74
F1.0
sg78
F0.0
sg79
F0.0
sg80
F0.0
sg81
F0.0
sg82
F0.0
sg83
F0.0
sg84
F0.0
sg85
F0.0
sg86
F0.0
sg87
F0.0
sg88
F1.0
sg89
F0.0
sg90
F0.0
sg91
F0.0
sg92
F0.0
sg93
F0.0
sg94
F0.0
sg95
F1.0
sg96
F0.0
sg97
F0.0
sg98
F0.0
sg99
F0.0
sg100
F0.0
sg101
F0.0
sg102
F0.0
sg103
F0.0
sg104
F0.0
sg105
F0.0
sg106
F0.0
sg107
F0.0
sg108
F0.0
sg109
F0.0
sg110
F0.0
sg111
F0.0
sg112
F0.0
sg113
F0.0
sg114
F0.0
sg115
F0.0
sg116
F0.0
sg117
F1.0
sg118
F0.0
sg119
F0.0
sg120
F0.0
sg121
F0.0
sg122
F0.0
sg123
F0.0
sg124
F0.0
sg125
F0.0
sg126
F0.0
sg127
F0.0
sg128
F0.0
sg129
F0.0
sg130
F0.0
sg131
F0.0
sg132
F0.0
sg133
F0.0
sg134
F0.0
sg135
F0.0
sg136
F0.0
sg137
F0.0
sg138
F0.0
sg139
F0.0
sg140
F0.0
sg141
F0.0
sg142
F0.0
sg143
F0.0
sg144
F0.0
sg145
F0.0
sg146
F0.0
sg147
F0.0
sg148
F0.0
sg149
F0.0
sg150
F0.0
sg151
F0.0
sg152
F0.0
sg153
F1.0
sg154
F0.0
sg28
F0.0
sg156
F0.0
sg157
F0.0
sg158
F1.0
sg159
F0.0
sg160
F0.0
sg161
F0.0
sg162
F0.0
sg163
F0.0
sg164
F0.0
sg165
F0.0
sg166
F0.0
sg167
F0.0
sg168
F0.0
sg169
F0.0
sg170
F0.0
sg171
F0.0
sg172
F0.0
sg173
F0.0
sg174
F0.0
sg175
F0.0
sg176
F1.0
sg177
F0.0
sg178
F0.0
sg179
F0.0
sg180
F0.0
sg181
F0.0
sg182
F0.0
ssVpfaulstich
p201
(dp202
g3
F0.0
sg4
F0.0
sg5
F0.0
sg6
F0.0
sg7
F0.0
sg8
F0.0
sg9
F1.0
sg10
F0.0
sg11
F0.0
sg12
F0.0
sg13
F0.0
sg14
F0.0
sg15
F0.0
sg16
F0.0
sg17
F1.0
sg18
F0.0
sg19
F0.0
sg20
F0.0
sg21
F0.0
sg22
F0.0
sg23
F0.0
sg24
F0.0
sg25
F0.0
sg26
F1.0
sg27
F0.0
sg155
F0.0
sg29
F0.0
sg30
F0.0
sg31
F0.0
sg32
F0.0
sg33
F0.0
sg34
F0.0
sg35
F0.0
sg36
F0.0
sg37
F0.0
sg38
F0.0
sg39
F0.0
sg40
F0.0
sg55
F0.0
sg42
F0.0
sg43
F0.0
sg44
F0.0
sg45
F0.0
sg46
F0.0
sg47
F0.0
sg48
F0.0
sg49
F0.0
sg50
F0.0
sg51
F0.0
sg52
F0.0
sg53
F1.0
sg54
F0.0
sg41
F0.0
sg56
F0.0
sg57
F0.0
sg58
F0.0
sg59
F0.0
sg60
F0.0
sg61
F0.0
sg62
F0.0
sg63
F0.0
sg64
F0.0
sg65
F1.0
sg66
F0.0
sg67
F0.0
sg68
F0.0
sg69
F0.0
sg70
F0.0
sg71
F0.0
sg72
F0.0
sg73
F0.0
sg74
F0.0
sg75
F0.0
sg76
F0.0
sg77
F0.0
sg78
F0.0
sg79
F1.0
sg80
F0.0
sg81
F0.0
sg82
F0.0
sg83
F0.0
sg84
F0.0
sg85
F0.0
sg86
F0.0
sg87
F0.0
sg88
F0.0
sg89
F0.0
sg90
F0.0
sg91
F0.0
sg92
F0.0
sg93
F0.0
sg94
F0.0
sg95
F0.0
sg96
F0.0
sg97
F0.0
sg98
F0.0
sg99
F0.0
sg100
F0.0
sg101
F0.0
sg102
F0.0
sg103
F0.0
sg104
F0.0
sg105
F0.0
sg106
F0.0
sg107
F0.0
sg108
F0.0
sg109
F0.0
sg110
F0.0
sg111
F0.0
sg112
F0.0
sg113
F0.0
sg114
F0.0
sg115
F0.0
sg117
F0.0
sg118
F0.0
sg119
F0.0
sg120
F0.0
sg121
F0.0
sg122
F1.0
sg123
F0.0
sg124
F0.0
sg125
F0.0
sg126
F0.0
sg127
F0.0
sg128
F0.0
sg129
F0.0
sg130
F0.0
sg131
F0.0
sg132
F0.0
sg133
F0.0
sg173
F0.0
sg134
F0.0
sg135
F0.0
sg136
F0.0
sg137
F0.0
sg138
F0.0
sg139
F0.0
sg140
F0.0
sg141
F0.0
sg142
F0.0
sg143
F0.0
sg144
F0.0
sg145
F0.0
sg146
F0.0
sg147
F0.0
sg148
F0.0
sg149
F0.0
sg150
F0.0
sg151
F0.0
sg152
F0.0
sg153
F0.0
sg154
F0.0
sg28
F0.0
sg156
F0.0
sg157
F0.0
sg158
F0.0
sg159
F1.0
sg160
F0.0
sg161
F0.0
sg162
F0.0
sg163
F0.0
sg164
F0.0
sg165
F0.0
sg166
F0.0
sg167
F0.0
sg116
F1.0
sg169
F0.0
sg170
F0.0
sg171
F0.0
sg172
F0.0
sg168
F0.0
sg174
F0.0
sg175
F0.0
sg176
F0.0
sg177
F0.0
sg178
F0.0
sg179
F0.0
sg180
F0.0
sg181
F0.0
sg182
F1.0
ssVkilonet
p203
(dp204
g12
F0.0
sg4
F0.0
sg5
F0.0
sg6
F0.0
sg7
F0.0
sg8
F0.0
sg9
F0.0
sg10
F0.0
sg11
F0.0
sg3
F0.0
sg13
F0.0
sg14
F0.0
sg15
F0.0
sg16
F0.0
sg17
F0.0
sg18
F0.0
sg19
F0.0
sg20
F0.0
sg21
F1.0
sg22
F0.0
sg23
F0.0
sg24
F0.0
sg25
F0.0
sg26
F0.0
sg27
F0.0
sg155
F0.0
sg29
F0.0
sg30
F0.0
sg31
F0.0
sg32
F0.0
sg33
F0.0
sg34
F0.0
sg35
F0.0
sg36
F0.0
sg37
F1.0
sg38
F1.0
sg39
F0.0
sg40
F0.0
sg55
F0.0
sg42
F0.0
sg43
F0.0
sg44
F0.0
sg45
F0.0
sg52
F0.0
sg46
F0.0
sg47
F0.0
sg48
F0.0
sg49
F0.0
sg50
F0.0
sg51
F0.0
sg96
F0.0
sg53
F0.0
sg54
F0.0
sg41
F1.0
sg56
F0.0
sg57
F0.0
sg58
F0.0
sg59
F0.0
sg60
F0.0
sg61
F0.0
sg62
F0.0
sg63
F0.0
sg64
F0.0
sg65
F0.0
sg66
F0.0
sg67
F0.0
sg68
F0.0
sg69
F0.0
sg70
F0.0
sg71
F0.0
sg72
F0.0
sg73
F0.0
sg74
F0.0
sg75
F0.0
sg76
F0.0
sg77
F0.0
sg78
F0.0
sg79
F0.0
sg80
F0.0
sg81
F0.0
sg82
F0.0
sg83
F0.0
sg84
F0.0
sg85
F0.0
sg86
F1.0
sg87
F0.0
sg88
F0.0
sg89
F0.0
sg90
F0.0
sg91
F1.0
sg92
F0.0
sg93
F0.0
sg94
F0.0
sg95
F0.0
sg104
F1.0
sg97
F0.0
sg98
F0.0
sg99
F0.0
sg100
F0.0
sg101
F0.0
sg102
F0.0
sg103
F0.0
sg105
F0.0
sg106
F0.0
sg107
F0.0
sg108
F0.0
sg109
F0.0
sg110
F0.0
sg111
F0.0
sg112
F0.0
sg113
F0.0
sg114
F0.0
sg115
F0.0
sg116
F0.0
sg117
F0.0
sg118
F0.0
sg119
F0.0
sg120
F0.0
sg121
F0.0
sg122
F0.0
sg123
F0.0
sg124
F1.0
sg125
F1.0
sg126
F0.0
sg127
F0.0
sg128
F0.0
sg129
F0.0
sg130
F0.0
sg131
F0.0
sg132
F0.0
sg133
F0.0
sg134
F0.0
sg135
F0.0
sg136
F0.0
sg137
F0.0
sg138
F0.0
sg139
F0.0
sg140
F0.0
sg141
F0.0
sg142
F0.0
sg143
F0.0
sg144
F0.0
sg145
F0.0
sg146
F0.0
sg147
F0.0
sg148
F0.0
sg149
F0.0
sg150
F0.0
sg151
F0.0
sg152
F0.0
sg153
F0.0
sg154
F0.0
sg28
F0.0
sg156
F0.0
sg157
F0.0
sg158
F0.0
sg159
F0.0
sg160
F0.0
sg161
F0.0
sg162
F1.0
sg163
F0.0
sg164
F0.0
sg165
F0.0
sg166
F0.0
sg167
F0.0
sg168
F0.0
sg169
F0.0
sg170
F0.0
sg171
F0.0
sg172
F0.0
sg173
F0.0
sg174
F0.0
sg175
F0.0
sg176
F0.0
sg177
F0.0
sg178
F0.0
sg179
F0.0
sg180
F0.0
sg181
F0.0
sg182
F0.0
ssVrkannan
p205
(dp206
g3
F0.0
sg4
F1.0
sg5
F0.0
sg6
F0.0
sg7
F0.0
sg8
F0.0
sg9
F0.0
sg10
F0.0
sg11
F0.0
sg12
F0.0
sg13
F0.0
sg14
F0.0
sg15
F1.0
sg16
F0.0
sg17
F0.0
sg18
F0.0
sg19
F0.0
sg20
F0.0
sg21
F0.0
sg108
F0.0
sg22
F0.0
sg23
F0.0
sg24
F0.0
sg25
F0.0
sg26
F0.0
sg27
F0.0
sg155
F0.0
sg29
F0.0
sg160
F1.0
sg31
F0.0
sg32
F0.0
sg33
F0.0
sg93
F0.0
sg34
F0.0
sg68
F0.0
sg36
F0.0
sg37
F0.0
sg38
F0.0
sg39
F0.0
sg40
F0.0
sg55
F0.0
sg42
F0.0
sg43
F0.0
sg45
F0.0
sg46
F0.0
sg47
F0.0
sg48
F0.0
sg49
F0.0
sg50
F0.0
sg51
F1.0
sg52
F0.0
sg53
F0.0
sg54
F0.0
sg41
F0.0
sg56
F0.0
sg57
F0.0
sg58
F0.0
sg59
F0.0
sg60
F0.0
sg61
F0.0
sg62
F0.0
sg63
F0.0
sg64
F0.0
sg65
F0.0
sg66
F0.0
sg67
F0.0
sg35
F1.0
sg69
F0.0
sg70
F0.0
sg71
F0.0
sg72
F0.0
sg73
F0.0
sg74
F0.0
sg75
F0.0
sg76
F1.0
sg77
F0.0
sg78
F0.0
sg79
F0.0
sg80
F0.0
sg81
F0.0
sg82
F0.0
sg83
F0.0
sg84
F0.0
sg85
F0.0
sg86
F0.0
sg87
F0.0
sg88
F0.0
sg89
F0.0
sg90
F0.0
sg91
F0.0
sg92
F0.0
sg44
F1.0
sg94
F0.0
sg95
F0.0
sg96
F0.0
sg97
F0.0
sg98
F1.0
sg99
F0.0
sg100
F0.0
sg101
F0.0
sg102
F0.0
sg103
F0.0
sg104
F0.0
sg105
F0.0
sg106
F0.0
sg107
F0.0
sg166
F0.0
sg109
F0.0
sg110
F0.0
sg139
F1.0
sg112
F0.0
sg113
F0.0
sg114
F0.0
sg115
F0.0
sg116
F0.0
sg117
F0.0
sg118
F0.0
sg119
F0.0
sg120
F0.0
sg121
F0.0
sg122
F0.0
sg123
F0.0
sg124
F0.0
sg125
F0.0
sg126
F0.0
sg127
F0.0
sg128
F0.0
sg129
F0.0
sg130
F0.0
sg131
F0.0
sg133
F0.0
sg134
F0.0
sg135
F0.0
sg136
F0.0
sg137
F0.0
sg138
F0.0
sg111
F0.0
sg140
F0.0
sg141
F0.0
sg142
F0.0
sg143
F0.0
sg144
F0.0
sg145
F0.0
sg146
F0.0
sg147
F0.0
sg148
F0.0
sg149
F0.0
sg150
F0.0
sg151
F0.0
sg152
F0.0
sg153
F0.0
sg154
F0.0
sg28
F0.0
sg156
F0.0
sg157
F0.0
sg158
F0.0
sg159
F0.0
sg30
F0.0
sg161
F0.0
sg162
F0.0
sg163
F0.0
sg164
F0.0
sg165
F0.0
sg132
F1.0
sg167
F0.0
sg168
F0.0
sg169
F0.0
sg170
F0.0
sg171
F0.0
sg172
F0.0
sg173
F0.0
sg174
F0.0
sg175
F0.0
sg176
F0.0
sg177
F0.0
sg178
F0.0
sg179
F0.0
sg180
F0.0
sg181
F0.0
sg182
F0.0
ssVboom
p207
(dp208
g3
F0.0
sg4
F0.0
sg5
F1.0
sg6
F0.0
sg7
F0.0
sg8
F0.0
sg9
F0.0
sg10
F0.0
sg11
F1.0
sg12
F0.0
sg13
F0.0
sg14
F1.0
sg15
F0.0
sg16
F0.0
sg17
F0.0
sg18
F0.0
sg19
F0.0
sg20
F0.0
sg21
F0.0
sg22
F0.0
sg23
F1.0
sg24
F0.0
sg25
F0.0
sg26
F0.0
sg27
F0.0
sg155
F0.0
sg29
F0.0
sg30
F0.0
sg31
F0.0
sg32
F0.0
sg33
F0.0
sg34
F0.0
sg35
F0.0
sg36
F0.0
sg37
F0.0
sg38
F0.0
sg39
F0.0
sg40
F0.0
sg55
F0.0
sg42
F0.0
sg43
F0.0
sg44
F0.0
sg45
F0.0
sg46
F0.0
sg47
F0.0
sg48
F0.0
sg49
F0.0
sg50
F1.0
sg51
F0.0
sg52
F0.0
sg53
F0.0
sg54
F0.0
sg41
F0.0
sg56
F0.0
sg57
F0.0
sg58
F0.0
sg59
F0.0
sg60
F0.0
sg61
F0.0
sg62
F0.0
sg63
F0.0
sg64
F0.0
sg65
F0.0
sg66
F0.0
sg67
F0.0
sg68
F0.0
sg69
F0.0
sg70
F0.0
sg71
F0.0
sg72
F0.0
sg73
F0.0
sg74
F0.0
sg75
F0.0
sg76
F0.0
sg77
F1.0
sg78
F0.0
sg79
F0.0
sg80
F0.0
sg81
F0.0
sg82
F0.0
sg83
F0.0
sg84
F0.0
sg85
F0.0
sg86
F0.0
sg87
F0.0
sg88
F0.0
sg89
F0.0
sg90
F0.0
sg91
F0.0
sg92
F0.0
sg93
F0.0
sg94
F0.0
sg95
F0.0
sg96
F0.0
sg97
F0.0
sg98
F0.0
sg99
F0.0
sg100
F0.0
sg101
F0.0
sg102
F0.0
sg103
F0.0
sg104
F0.0
sg105
F0.0
sg106
F0.0
sg107
F0.0
sg108
F0.0
sg127
F1.0
sg110
F0.0
sg111
F0.0
sg112
F0.0
sg113
F0.0
sg114
F0.0
sg115
F0.0
sg116
F0.0
sg117
F0.0
sg118
F0.0
sg119
F0.0
sg120
F0.0
sg121
F0.0
sg122
F0.0
sg123
F0.0
sg124
F0.0
sg125
F0.0
sg126
F0.0
sg109
F0.0
sg128
F0.0
sg129
F0.0
sg130
F0.0
sg131
F0.0
sg132
F0.0
sg133
F0.0
sg134
F0.0
sg135
F0.0
sg136
F0.0
sg137
F0.0
sg138
F0.0
sg139
F0.0
sg140
F1.0
sg143
F1.0
sg142
F0.0
sg141
F0.0
sg144
F0.0
sg145
F0.0
sg146
F0.0
sg147
F0.0
sg148
F0.0
sg149
F0.0
sg150
F0.0
sg151
F0.0
sg152
F0.0
sg153
F0.0
sg154
F0.0
sg28
F0.0
sg156
F0.0
sg157
F0.0
sg158
F0.0
sg159
F0.0
sg160
F0.0
sg161
F0.0
sg162
F0.0
sg163
F0.0
sg164
F0.0
sg165
F0.0
sg166
F0.0
sg167
F0.0
sg168
F0.0
sg169
F0.0
sg170
F0.0
sg171
F0.0
sg172
F0.0
sg173
F0.0
sg174
F0.0
sg175
F0.0
sg176
F0.0
sg177
F0.0
sg178
F0.0
sg179
F1.0
sg180
F0.0
sg181
F0.0
sg182
F0.0
ssVmacdylan
p209
(dp210
g3
F1.0
sg4
F0.0
sg5
F0.0
sg6
F0.0
sg7
F0.0
sg8
F0.0
sg9
F0.0
sg10
F0.0
sg11
F0.0
sg12
F0.0
sg13
F0.0
sg14
F0.0
sg15
F0.0
sg16
F0.0
sg17
F0.0
sg18
F0.0
sg19
F1.0
sg20
F0.0
sg21
F0.0
sg22
F0.0
sg23
F0.0
sg24
F0.0
sg25
F0.0
sg26
F0.0
sg27
F0.0
sg155
F0.0
sg29
F0.0
sg30
F0.0
sg31
F0.0
sg32
F0.0
sg33
F0.0
sg34
F1.0
sg35
F0.0
sg36
F0.0
sg37
F0.0
sg38
F0.0
sg39
F0.0
sg40
F0.0
sg55
F0.0
sg42
F0.0
sg43
F0.0
sg44
F0.0
sg45
F0.0
sg46
F0.0
sg47
F0.0
sg48
F0.0
sg49
F0.0
sg50
F0.0
sg51
F0.0
sg52
F0.0
sg53
F0.0
sg54
F0.0
sg41
F0.0
sg56
F0.0
sg57
F0.0
sg58
F0.0
sg59
F0.0
sg60
F0.0
sg61
F0.0
sg62
F0.0
sg63
F0.0
sg64
F0.0
sg65
F0.0
sg66
F0.0
sg67
F0.0
sg68
F0.0
sg69
F0.0
sg70
F0.0
sg71
F0.0
sg72
F0.0
sg73
F0.0
sg74
F0.0
sg75
F0.0
sg76
F0.0
sg77
F0.0
sg78
F0.0
sg79
F0.0
sg80
F0.0
sg81
F0.0
sg142
F1.0
sg83
F0.0
sg84
F0.0
sg85
F0.0
sg86
F0.0
sg87
F0.0
sg88
F0.0
sg89
F0.0
sg90
F0.0
sg91
F0.0
sg92
F1.0
sg93
F0.0
sg94
F0.0
sg95
F0.0
sg96
F0.0
sg97
F0.0
sg98
F0.0
sg99
F0.0
sg100
F0.0
sg101
F0.0
sg102
F0.0
sg103
F0.0
sg104
F0.0
sg105
F1.0
sg106
F0.0
sg107
F0.0
sg108
F0.0
sg109
F0.0
sg110
F0.0
sg111
F0.0
sg112
F0.0
sg113
F0.0
sg114
F0.0
sg115
F0.0
sg116
F0.0
sg117
F0.0
sg118
F0.0
sg119
F0.0
sg120
F0.0
sg121
F0.0
sg122
F0.0
sg123
F0.0
sg124
F0.0
sg125
F0.0
sg126
F0.0
sg127
F0.0
sg128
F0.0
sg129
F0.0
sg130
F0.0
sg131
F0.0
sg132
F0.0
sg133
F0.0
sg134
F1.0
sg135
F0.0
sg136
F0.0
sg137
F0.0
sg138
F0.0
sg139
F0.0
sg140
F0.0
sg141
F0.0
sg82
F0.0
sg143
F0.0
sg144
F0.0
sg145
F1.0
sg146
F0.0
sg147
F0.0
sg148
F0.0
sg149
F0.0
sg150
F0.0
sg151
F0.0
sg152
F0.0
sg153
F0.0
sg154
F0.0
sg28
F1.0
sg156
F0.0
sg157
F0.0
sg158
F0.0
sg159
F0.0
sg160
F0.0
sg161
F0.0
sg162
F0.0
sg163
F0.0
sg164
F0.0
sg165
F0.0
sg166
F0.0
sg167
F0.0
sg168
F0.0
sg169
F0.0
sg170
F0.0
sg171
F1.0
sg172
F0.0
sg173
F0.0
sg174
F0.0
sg175
F0.0
sg176
F0.0
sg177
F0.0
sg178
F0.0
sg179
F0.0
sg180
F0.0
sg181
F0.0
sg182
F0.0
ssVrhcarvalho
p211
(dp212
g3
F0.0
sg4
F0.0
sg5
F0.0
sg6
F0.0
sg7
F0.0
sg8
F0.0
sg9
F0.0
sg10
F0.0
sg11
F0.0
sg12
F0.0
sg13
F0.0
sg14
F0.0
sg15
F0.0
sg16
F0.0
sg17
F0.0
sg18
F0.0
sg19
F0.0
sg20
F0.0
sg21
F0.0
sg22
F0.0
sg23
F0.0
sg24
F0.0
sg25
F0.0
sg26
F0.0
sg27
F0.0
sg155
F0.0
sg29
F0.0
sg30
F0.0
sg31
F0.0
sg32
F0.0
sg33
F0.0
sg34
F0.0
sg35
F0.0
sg36
F0.0
sg37
F0.0
sg38
F0.0
sg39
F0.0
sg40
F0.0
sg55
F0.0
sg42
F0.0
sg43
F0.0
sg44
F0.0
sg45
F0.0
sg46
F0.0
sg47
F0.0
sg48
F0.0
sg49
F1.0
sg50
F0.0
sg51
F0.0
sg52
F0.0
sg53
F0.0
sg54
F0.0
sg41
F0.0
sg56
F0.0
sg57
F0.0
sg58
F0.0
sg59
F1.0
sg60
F0.0
sg61
F0.0
sg62
F0.0
sg63
F0.0
sg64
F0.0
sg65
F0.0
sg66
F0.0
sg67
F0.0
sg68
F0.0
sg69
F0.0
sg70
F0.0
sg71
F0.0
sg72
F0.0
sg73
F0.0
sg74
F0.0
sg75
F1.0
sg76
F0.0
sg77
F0.0
sg78
F0.0
sg79
F0.0
sg80
F0.0
sg81
F0.0
sg82
F0.0
sg83
F1.0
sg84
F0.0
sg85
F0.0
sg86
F0.0
sg87
F0.0
sg88
F0.0
sg89
F0.0
sg90
F0.0
sg91
F0.0
sg92
F0.0
sg93
F0.0
sg94
F0.0
sg95
F0.0
sg96
F0.0
sg97
F0.0
sg98
F0.0
sg99
F0.0
sg100
F0.0
sg101
F0.0
sg102
F0.0
sg103
F0.0
sg104
F0.0
sg105
F0.0
sg106
F0.0
sg107
F0.0
sg108
F0.0
sg109
F0.0
sg110
F0.0
sg111
F0.0
sg112
F0.0
sg113
F0.0
sg114
F1.0
sg115
F0.0
sg116
F0.0
sg117
F0.0
sg118
F0.0
sg119
F0.0
sg120
F0.0
sg121
F0.0
sg122
F0.0
sg123
F0.0
sg124
F0.0
sg125
F0.0
sg126
F0.0
sg127
F0.0
sg128
F0.0
sg129
F0.0
sg130
F0.0
sg131
F0.0
sg132
F0.0
sg133
F0.0
sg134
F0.0
sg135
F0.0
sg136
F0.0
sg137
F1.0
sg138
F0.0
sg139
F0.0
sg140
F0.0
sg141
F0.0
sg142
F0.0
sg143
F0.0
sg144
F0.0
sg145
F0.0
sg146
F0.0
sg147
F0.0
sg148
F0.0
sg149
F0.0
sg150
F1.0
sg151
F0.0
sg152
F0.0
sg153
F0.0
sg154
F0.0
sg28
F0.0
sg156
F0.0
sg157
F1.0
sg158
F0.0
sg159
F0.0
sg160
F0.0
sg161
F0.0
sg162
F0.0
sg163
F0.0
sg164
F0.0
sg165
F0.0
sg166
F0.0
sg167
F0.0
sg168
F0.0
sg169
F1.0
sg170
F0.0
sg171
F0.0
sg172
F0.0
sg173
F0.0
sg174
F0.0
sg175
F0.0
sg176
F0.0
sg177
F0.0
sg178
F0.0
sg179
F0.0
sg180
F0.0
sg181
F1.0
sg182
F0.0
ssVmalstrom72
p213
(dp214
g3
F0.0
sg4
F0.0
sg5
F0.0
sg6
F0.0
sg7
F0.0
sg8
F1.0
sg9
F0.0
sg10
F1.0
sg11
F0.0
sg12
F0.0
sg13
F0.0
sg14
F0.0
sg15
F0.0
sg16
F0.0
sg17
F0.0
sg18
F0.0
sg19
F0.0
sg20
F0.0
sg21
F0.0
sg22
F0.0
sg23
F0.0
sg24
F0.0
sg25
F0.0
sg26
F0.0
sg27
F0.0
sg155
F0.0
sg29
F0.0
sg30
F0.0
sg31
F0.0
sg32
F0.0
sg33
F0.0
sg34
F0.0
sg35
F0.0
sg36
F0.0
sg37
F0.0
sg38
F0.0
sg39
F1.0
sg40
F0.0
sg41
F0.0
sg42
F0.0
sg43
F0.0
sg44
F0.0
sg45
F1.0
sg46
F0.0
sg47
F0.0
sg48
F0.0
sg49
F0.0
sg50
F0.0
sg51
F0.0
sg52
F0.0
sg53
F0.0
sg54
F0.0
sg55
F1.0
sg56
F0.0
sg57
F0.0
sg58
F0.0
sg59
F0.0
sg60
F0.0
sg61
F0.0
sg62
F0.0
sg63
F0.0
sg64
F0.0
sg65
F0.0
sg66
F0.0
sg67
F0.0
sg68
F1.0
sg69
F0.0
sg70
F0.0
sg71
F0.0
sg72
F0.0
sg73
F0.0
sg74
F0.0
sg75
F0.0
sg76
F0.0
sg77
F0.0
sg78
F0.0
sg143
F0.0
sg79
F0.0
sg80
F0.0
sg81
F0.0
sg82
F0.0
sg83
F0.0
sg84
F0.0
sg85
F0.0
sg86
F0.0
sg87
F0.0
sg88
F0.0
sg89
F1.0
sg90
F0.0
sg91
F0.0
sg92
F0.0
sg93
F0.0
sg94
F0.0
sg95
F0.0
sg96
F0.0
sg97
F0.0
sg98
F0.0
sg99
F0.0
sg100
F1.0
sg101
F0.0
sg102
F0.0
sg103
F0.0
sg104
F0.0
sg105
F0.0
sg106
F0.0
sg107
F0.0
sg108
F0.0
sg109
F0.0
sg110
F0.0
sg111
F0.0
sg112
F0.0
sg113
F0.0
sg114
F0.0
sg115
F0.0
sg116
F0.0
sg117
F0.0
sg118
F0.0
sg119
F0.0
sg120
F0.0
sg121
F0.0
sg122
F0.0
sg123
F0.0
sg124
F0.0
sg125
F0.0
sg126
F0.0
sg127
F0.0
sg128
F0.0
sg129
F1.0
sg130
F0.0
sg131
F0.0
sg132
F0.0
sg133
F0.0
sg134
F0.0
sg135
F0.0
sg136
F0.0
sg137
F0.0
sg138
F0.0
sg139
F0.0
sg140
F0.0
sg141
F0.0
sg142
F0.0
sg151
F1.0
sg144
F0.0
sg145
F0.0
sg146
F0.0
sg147
F0.0
sg148
F0.0
sg149
F0.0
sg150
F0.0
sg152
F0.0
sg153
F0.0
sg154
F0.0
sg28
F0.0
sg156
F0.0
sg157
F0.0
sg158
F0.0
sg159
F0.0
sg160
F0.0
sg161
F0.0
sg162
F0.0
sg163
F0.0
sg164
F0.0
sg165
F0.0
sg166
F0.0
sg167
F0.0
sg168
F0.0
sg169
F0.0
sg170
F0.0
sg171
F0.0
sg172
F0.0
sg173
F0.0
sg174
F0.0
sg175
F0.0
sg176
F0.0
sg177
F0.0
sg178
F0.0
sg179
F0.0
sg180
F0.0
sg181
F0.0
sg182
F0.0
ssVmloskot
p215
(dp216
g12
F1.0
sg4
F0.0
sg5
F0.0
sg6
F0.0
sg7
F0.0
sg8
F0.0
sg9
F0.0
sg10
F0.0
sg11
F0.0
sg3
F0.0
sg13
F1.0
sg14
F0.0
sg15
F0.0
sg16
F0.0
sg17
F0.0
sg18
F0.0
sg19
F0.0
sg20
F0.0
sg21
F0.0
sg22
F0.0
sg23
F0.0
sg24
F0.0
sg25
F0.0
sg26
F0.0
sg27
F0.0
sg155
F0.0
sg29
F0.0
sg30
F0.0
sg31
F0.0
sg32
F0.0
sg33
F0.0
sg34
F0.0
sg35
F0.0
sg36
F0.0
sg37
F0.0
sg38
F0.0
sg39
F0.0
sg40
F0.0
sg55
F0.0
sg42
F0.0
sg43
F0.0
sg44
F0.0
sg45
F0.0
sg46
F0.0
sg47
F0.0
sg48
F0.0
sg49
F0.0
sg50
F0.0
sg51
F0.0
sg52
F0.0
sg53
F0.0
sg54
F1.0
sg41
F0.0
sg56
F0.0
sg57
F0.0
sg58
F0.0
sg59
F0.0
sg60
F0.0
sg61
F0.0
sg62
F0.0
sg63
F0.0
sg64
F0.0
sg65
F0.0
sg66
F0.0
sg67
F0.0
sg68
F0.0
sg69
F0.0
sg70
F0.0
sg71
F0.0
sg72
F0.0
sg73
F0.0
sg74
F0.0
sg75
F0.0
sg76
F0.0
sg77
F0.0
sg78
F0.0
sg79
F0.0
sg80
F0.0
sg81
F0.0
sg82
F0.0
sg83
F0.0
sg84
F0.0
sg85
F0.0
sg86
F0.0
sg87
F0.0
sg88
F0.0
sg89
F0.0
sg90
F0.0
sg91
F0.0
sg92
F0.0
sg93
F0.0
sg94
F0.0
sg95
F0.0
sg96
F0.0
sg97
F0.0
sg98
F0.0
sg99
F0.0
sg100
F0.0
sg101
F0.0
sg102
F0.0
sg103
F0.0
sg104
F0.0
sg105
F0.0
sg106
F0.0
sg107
F1.0
sg108
F0.0
sg109
F0.0
sg110
F0.0
sg111
F0.0
sg112
F0.0
sg113
F0.0
sg114
F0.0
sg115
F0.0
sg116
F0.0
sg117
F0.0
sg118
F0.0
sg119
F0.0
sg120
F1.0
sg121
F0.0
sg122
F0.0
sg123
F1.0
sg124
F0.0
sg125
F0.0
sg126
F0.0
sg127
F0.0
sg128
F1.0
sg129
F0.0
sg130
F0.0
sg131
F0.0
sg132
F0.0
sg133
F0.0
sg134
F0.0
sg135
F0.0
sg136
F0.0
sg137
F0.0
sg138
F0.0
sg139
F0.0
sg140
F0.0
sg141
F0.0
sg142
F0.0
sg143
F0.0
sg144
F0.0
sg145
F0.0
sg146
F0.0
sg147
F0.0
sg148
F0.0
sg149
F0.0
sg150
F0.0
sg151
F0.0
sg152
F0.0
sg153
F0.0
sg154
F0.0
sg28
F0.0
sg156
F0.0
sg157
F0.0
sg158
F0.0
sg159
F0.0
sg160
F0.0
sg161
F0.0
sg162
F0.0
sg163
F0.0
sg164
F0.0
sg165
F0.0
sg166
F1.0
sg167
F0.0
sg168
F0.0
sg169
F0.0
sg170
F0.0
sg171
F0.0
sg172
F0.0
sg173
F0.0
sg174
F0.0
sg175
F0.0
sg176
F0.0
sg177
F0.0
sg178
F1.0
sg179
F0.0
sg180
F1.0
sg181
F0.0
sg182
F0.0
ss.